target datalayout = "e-m:e-p270:32:32-p271:32:32-p272:64:64-i64:64-i128:128-f80:128-n8:16:32:64-S128"
target triple = "x86_64-pc-linux-gnu"

; Function Attrs: mustprogress uwtable
define internal noundef zeroext i1 @_ZL5pcompRK17InteractionOfTypeS1_(ptr noundef nonnull align 8 dereferenceable(105) %0, ptr noundef nonnull align 8 dereferenceable(105) %1) #0 {
  %3 = alloca i1, align 1
  %4 = alloca ptr, align 8
  %5 = alloca ptr, align 8
  %6 = alloca i32, align 4
  %7 = alloca i32, align 4
  store ptr %0, ptr %4, align 8, !tbaa !137
  store ptr %1, ptr %5, align 8, !tbaa !137
  call void @llvm.lifetime.start.p0(i64 4, ptr %6) #19
  %8 = load ptr, ptr %4, align 8, !tbaa !137
  %9 = call noundef nonnull align 4 dereferenceable(4) ptr @_ZNK17InteractionOfType2aiEv(ptr noundef nonnull align 8 dereferenceable(105) %8)
  %10 = load i32, ptr %9, align 4, !tbaa !24
  %11 = load ptr, ptr %5, align 8, !tbaa !137
  %12 = call noundef nonnull align 4 dereferenceable(4) ptr @_ZNK17InteractionOfType2aiEv(ptr noundef nonnull align 8 dereferenceable(105) %11)
  %13 = load i32, ptr %12, align 4, !tbaa !24
  %14 = sub nsw i32 %10, %13
  store i32 %14, ptr %6, align 4, !tbaa !24
  %15 = icmp ne i32 %14, 0
  br i1 %15, label %16, label %19

16:                                               ; preds = %2
  %17 = load i32, ptr %6, align 4, !tbaa !24
  %18 = icmp slt i32 %17, 0
  store i1 %18, ptr %3, align 1
  store i32 1, ptr %7, align 4
  br label %27

19:                                               ; preds = %2
  %20 = load ptr, ptr %4, align 8, !tbaa !137
  %21 = call noundef nonnull align 4 dereferenceable(4) ptr @_ZNK17InteractionOfType2ajEv(ptr noundef nonnull align 8 dereferenceable(105) %20)
  %22 = load i32, ptr %21, align 4, !tbaa !24
  %23 = load ptr, ptr %5, align 8, !tbaa !137
  %24 = call noundef nonnull align 4 dereferenceable(4) ptr @_ZNK17InteractionOfType2ajEv(ptr noundef nonnull align 8 dereferenceable(105) %23)
  %25 = load i32, ptr %24, align 4, !tbaa !24
  %26 = icmp slt i32 %22, %25
  store i1 %26, ptr %3, align 1
  store i32 1, ptr %7, align 4
  br label %27

27:                                               ; preds = %19, %16
  call void @llvm.lifetime.end.p0(i64 4, ptr %6) #19
  %28 = load i1, ptr %3, align 1
  ret i1 %28
}