; Function Attrs: mustprogress uwtable
define internal noundef zeroext i1 @_ZL5pcompRK17InteractionOfTypeS1_(ptr noundef nonnull align 8 dereferenceable(105) %0, ptr noundef nonnull align 8 dereferenceable(105) %1) #0 {
  %3 = tail call noundef nonnull align 4 dereferenceable(4) ptr @_ZNK17InteractionOfType2aiEv(ptr noundef nonnull align 8 dereferenceable(105) %0)
  %4 = load i32, ptr %3, align 4, !tbaa !39
  %5 = tail call noundef nonnull align 4 dereferenceable(4) ptr @_ZNK17InteractionOfType2aiEv(ptr noundef nonnull align 8 dereferenceable(105) %1)
  %6 = load i32, ptr %5, align 4, !tbaa !39
  %.not = icmp eq i32 %4, %6
  br i1 %.not, label %9, label %7

7:                                                ; preds = %2
  %8 = icmp slt i32 %4, %6
  br label %15

9:                                                ; preds = %2
  %10 = tail call noundef nonnull align 4 dereferenceable(4) ptr @_ZNK17InteractionOfType2ajEv(ptr noundef nonnull align 8 dereferenceable(105) %0)
  %11 = load i32, ptr %10, align 4, !tbaa !39
  %12 = tail call noundef nonnull align 4 dereferenceable(4) ptr @_ZNK17InteractionOfType2ajEv(ptr noundef nonnull align 8 dereferenceable(105) %1)
  %13 = load i32, ptr %12, align 4, !tbaa !39
  %14 = icmp slt i32 %11, %13
  br label %15

15:                                               ; preds = %9, %7
  %.0 = phi i1 [ %8, %7 ], [ %14, %9 ]
  ret i1 %.0
}